(lp1
(lp2
I59
aI8
aI0
aI0
aa(lp3
I105
aI15
aI0
aI0
aa(lp4
I303
aI47
aI0
aI0
aa(lp5
I114
aI21
aI0
aI0
aa(lp6
I269
aI36
aI0
aI0
aa(lp7
I115
aI19
aI0
aI0
aa(lp8
I99
aI25
aI0
aI0
aa(lp9
I676
aI119
aI0
aI2
aa(lp10
I2003
aI254
aI0
aI4
aa(lp11
I41
aI6
aI0
aI0
aa(lp12
I739
aI89
aI0
aI0
aa(lp13
I1372
aI179
aI0
aI0
aa(lp14
I102
aI27
aI0
aI0
aa(lp15
I235
aI29
aI0
aI0
aa(lp16
I1661
aI206
aI0
aI0
aa(lp17
I223
aI30
aI0
aI0
aa(lp18
I4885
aI946
aI0
aI54
aa(lp19
I126
aI38
aI0
aI0
aa(lp20
I153
aI16
aI0
aI0
aa(lp21
I373
aI48
aI0
aI0
aa(lp22
I40
aI8
aI0
aI0
aa(lp23
I633
aI73
aI0
aI0
aa(lp24
I174
aI22
aI0
aI0
aa(lp25
I335
aI40
aI0
aI2
aa(lp26
I41
aI3
aI0
aI0
aa(lp27
I85
aI12
aI0
aI0
aa(lp28
I1030
aI95
aI0
aI2
aa(lp29
I3819
aI675
aI0
aI14
aa(lp30
I662
aI102
aI0
aI0
aa(lp31
I362
aI39
aI0
aI0
aa(lp32
I28
aI5
aI0
aI0
aa(lp33
I150
aI30
aI0
aI0
aa(lp34
I153
aI10
aI0
aI0
aa(lp35
I713
aI181
aI0
aI0
aa.